target datalayout = "e-m:e-p270:32:32-p271:32:32-p272:64:64-i64:64-i128:128-f80:128-n8:16:32:64-S128"
target triple = "x86_64-pc-linux-gnu"

%"class.std::__1::pmr::memory_resource" = type { ptr }
%"class.std::__1::pmr::unsynchronized_pool_resource::__adhoc_pool" = type { ptr }
%"class.std::__1::pmr::unsynchronized_pool_resource" = type { %"class.std::__1::pmr::memory_resource", ptr, %"class.std::__1::pmr::unsynchronized_pool_resource::__adhoc_pool", ptr, i32, i32 }

; Function Attrs: mustprogress nounwind uwtable
define dso_local noundef i32 @_ZNKSt3__13pmr28unsynchronized_pool_resource12__pool_indexEmm(ptr noundef nonnull align 8 dereferenceable(40) %0, i64 noundef %1, i64 noundef %2) #0 align 2 {
  %4 = alloca i32, align 4
  %5 = alloca ptr, align 8
  %6 = alloca i64, align 8
  %7 = alloca i64, align 8
  %8 = alloca i32, align 4
  store ptr %0, ptr %5, align 8, !tbaa !34
  store i64 %1, ptr %6, align 8, !tbaa !30
  store i64 %2, ptr %7, align 8, !tbaa !30
  %9 = load ptr, ptr %5, align 8
  %10 = load i64, ptr %7, align 8, !tbaa !30
  %11 = icmp ugt i64 %10, 16
  br i1 %11, label %19, label %12

12:                                               ; preds = %3
  %13 = load i64, ptr %6, align 8, !tbaa !30
  %14 = getelementptr inbounds nuw %"class.std::__1::pmr::unsynchronized_pool_resource", ptr %9, i32 0, i32 4
  %15 = load i32, ptr %14, align 8, !tbaa !38
  %16 = zext i32 %15 to i64
  %17 = shl i64 1, %16
  %18 = icmp ugt i64 %13, %17
  br i1 %18, label %19, label %22

19:                                               ; preds = %12, %3
  %20 = getelementptr inbounds nuw %"class.std::__1::pmr::unsynchronized_pool_resource", ptr %9, i32 0, i32 4
  %21 = load i32, ptr %20, align 8, !tbaa !38
  store i32 %21, ptr %4, align 4
  br label %46

22:                                               ; preds = %12
  call void @llvm.lifetime.start.p0(i64 4, ptr %8) #3
  store i32 0, ptr %8, align 4, !tbaa !36
  %23 = load i64, ptr %6, align 8, !tbaa !30
  %24 = load i64, ptr %7, align 8, !tbaa !30
  %25 = icmp ugt i64 %23, %24
  br i1 %25, label %26, label %28

26:                                               ; preds = %22
  %27 = load i64, ptr %6, align 8, !tbaa !30
  br label %30

28:                                               ; preds = %22
  %29 = load i64, ptr %7, align 8, !tbaa !30
  br label %30

30:                                               ; preds = %28, %26
  %31 = phi i64 [ %27, %26 ], [ %29, %28 ]
  store i64 %31, ptr %6, align 8, !tbaa !30
  %32 = load i64, ptr %6, align 8, !tbaa !30
  %33 = sub i64 %32, 1
  store i64 %33, ptr %6, align 8, !tbaa !30
  %34 = load i64, ptr %6, align 8, !tbaa !30
  %35 = lshr i64 %34, 3
  store i64 %35, ptr %6, align 8, !tbaa !30
  br label %36

36:                                               ; preds = %39, %30
  %37 = load i64, ptr %6, align 8, !tbaa !30
  %38 = icmp ne i64 %37, 0
  br i1 %38, label %39, label %44

39:                                               ; preds = %36
  %40 = load i64, ptr %6, align 8, !tbaa !30
  %41 = lshr i64 %40, 1
  store i64 %41, ptr %6, align 8, !tbaa !30
  %42 = load i32, ptr %8, align 4, !tbaa !36
  %43 = add nsw i32 %42, 1
  store i32 %43, ptr %8, align 4, !tbaa !36
  br label %36, !llvm.loop !42

44:                                               ; preds = %36
  %45 = load i32, ptr %8, align 4, !tbaa !36
  store i32 %45, ptr %4, align 4
  call void @llvm.lifetime.end.p0(i64 4, ptr %8) #3
  br label %46

46:                                               ; preds = %44, %19
  %47 = load i32, ptr %4, align 4
  ret i32 %47
}