; Function Attrs: mustprogress nofree norecurse nosync nounwind willreturn memory(argmem: read) uwtable
define dso_local noundef i32 @_ZNKSt3__13pmr28unsynchronized_pool_resource12__pool_indexEmm(ptr noundef nonnull readonly align 8 captures(none) dereferenceable(40) %0, i64 noundef %1, i64 noundef %2) local_unnamed_addr #6 align 2 {
  %4 = icmp ugt i64 %2, 16
  %.phi.trans.insert = getelementptr inbounds nuw i8, ptr %0, i64 32
  %.pre = load i32, ptr %.phi.trans.insert, align 8, !tbaa !22
  %5 = zext nneg i32 %.pre to i64
  %6 = shl nuw i64 1, %5
  %7 = icmp ugt i64 %1, %6
  %or.cond = select i1 %4, i1 true, i1 %7
  br i1 %or.cond, label %.loopexit, label %8

8:                                                ; preds = %3
  %9 = tail call i64 @llvm.umax.i64(i64 %1, i64 %2)
  %10 = add i64 %9, -1
  %.not17 = icmp ult i64 %10, 8
  br i1 %.not17, label %.loopexit, label %.lr.ph.preheader

.lr.ph.preheader:                                 ; preds = %8
  %11 = lshr i64 %10, 3
  br label %.lr.ph

.lr.ph:                                           ; preds = %.lr.ph.preheader, %.lr.ph
  %.019 = phi i32 [ %13, %.lr.ph ], [ 0, %.lr.ph.preheader ]
  %.01418 = phi i64 [ %12, %.lr.ph ], [ %11, %.lr.ph.preheader ]
  %12 = lshr i64 %.01418, 1
  %13 = add nuw nsw i32 %.019, 1
  %.not = icmp samesign ult i64 %.01418, 2
  br i1 %.not, label %.loopexit, label %.lr.ph, !llvm.loop !28

.loopexit:                                        ; preds = %.lr.ph, %3, %8
  %.013 = phi i32 [ 0, %8 ], [ %.pre, %3 ], [ %13, %.lr.ph ]
  ret i32 %.013
}